target datalayout = "e-m:e-p270:32:32-p271:32:32-p272:64:64-i64:64-i128:128-f80:128-n8:16:32:64-S128"
target triple = "x86_64-pc-linux-gnu"

@_Py_tss_tstate = external thread_local global ptr, align 8

; Function Attrs: inlinehint nounwind uwtable
define internal ptr @_PyThreadState_GET() #8 {
  %1 = call align 8 ptr @llvm.threadlocal.address.p0(ptr align 8 @_Py_tss_tstate)
  %2 = load ptr, ptr %1, align 8, !tbaa !186
  ret ptr %2
}

; Function Attrs: nounwind uwtable
define dso_local i32 @PyThread_acquire_lock_timed_with_retries(ptr noundef %0, i64 noundef %1) #0 {
  %3 = alloca i32, align 4
  %4 = alloca ptr, align 8
  %5 = alloca i64, align 8
  %6 = alloca ptr, align 8
  %7 = alloca i64, align 8
  %8 = alloca i32, align 4
  %9 = alloca i64, align 8
  %10 = alloca ptr, align 8
  %11 = alloca i32, align 4
  store ptr %0, ptr %4, align 8, !tbaa !176
  store i64 %1, ptr %5, align 8, !tbaa !178
  call void @llvm.lifetime.start.p0(i64 8, ptr %6) #11
  %12 = call ptr @_PyThreadState_GET()
  store ptr %12, ptr %6, align 8, !tbaa !186
  call void @llvm.lifetime.start.p0(i64 8, ptr %7) #11
  store i64 0, ptr %7, align 8, !tbaa !181
  %13 = load i64, ptr %5, align 8, !tbaa !178
  %14 = icmp sgt i64 %13, 0
  br i1 %14, label %15, label %18

15:                                               ; preds = %2
  %16 = load i64, ptr %5, align 8, !tbaa !178
  %17 = call i64 @_PyDeadline_Init(i64 noundef %16)
  store i64 %17, ptr %7, align 8, !tbaa !181
  br label %18

18:                                               ; preds = %15, %2
  call void @llvm.lifetime.start.p0(i64 4, ptr %8) #11
  br label %19

19:                                               ; preds = %58, %18
  call void @llvm.lifetime.start.p0(i64 8, ptr %9) #11
  %20 = load i64, ptr %5, align 8, !tbaa !178
  %21 = call i64 @_PyTime_AsMicroseconds(i64 noundef %20, i32 noundef 1)
  store i64 %21, ptr %9, align 8, !tbaa !181
  %22 = load ptr, ptr %4, align 8, !tbaa !176
  %23 = call i32 @PyThread_acquire_lock_timed(ptr noundef %22, i64 noundef 0, i32 noundef 0)
  store i32 %23, ptr %8, align 4, !tbaa !175
  %24 = load i32, ptr %8, align 4, !tbaa !175
  %25 = icmp eq i32 %24, 0
  br i1 %25, label %26, label %35

26:                                               ; preds = %19
  %27 = load i64, ptr %9, align 8, !tbaa !181
  %28 = icmp ne i64 %27, 0
  br i1 %28, label %29, label %35

29:                                               ; preds = %26
  call void @llvm.lifetime.start.p0(i64 8, ptr %10) #11
  %30 = call ptr @PyEval_SaveThread()
  store ptr %30, ptr %10, align 8, !tbaa !186
  %31 = load ptr, ptr %4, align 8, !tbaa !176
  %32 = load i64, ptr %9, align 8, !tbaa !181
  %33 = call i32 @PyThread_acquire_lock_timed(ptr noundef %31, i64 noundef %32, i32 noundef 1)
  store i32 %33, ptr %8, align 4, !tbaa !175
  %34 = load ptr, ptr %10, align 8, !tbaa !186
  call void @PyEval_RestoreThread(ptr noundef %34)
  call void @llvm.lifetime.end.p0(i64 8, ptr %10) #11
  br label %35

35:                                               ; preds = %29, %26, %19
  %36 = load i32, ptr %8, align 4, !tbaa !175
  %37 = icmp eq i32 %36, 2
  br i1 %37, label %38, label %54

38:                                               ; preds = %35
  %39 = load ptr, ptr %6, align 8, !tbaa !186
  %40 = call i32 @_PyEval_MakePendingCalls(ptr noundef %39)
  %41 = icmp slt i32 %40, 0
  br i1 %41, label %42, label %43

42:                                               ; preds = %38
  store i32 2, ptr %3, align 4
  store i32 1, ptr %11, align 4
  br label %55

43:                                               ; preds = %38
  %44 = load i64, ptr %5, align 8, !tbaa !178
  %45 = icmp sgt i64 %44, 0
  br i1 %45, label %46, label %53

46:                                               ; preds = %43
  %47 = load i64, ptr %7, align 8, !tbaa !181
  %48 = call i64 @_PyDeadline_Get(i64 noundef %47)
  store i64 %48, ptr %5, align 8, !tbaa !178
  %49 = load i64, ptr %5, align 8, !tbaa !178
  %50 = icmp slt i64 %49, 0
  br i1 %50, label %51, label %52

51:                                               ; preds = %46
  store i32 0, ptr %8, align 4, !tbaa !175
  br label %52

52:                                               ; preds = %51, %46
  br label %53

53:                                               ; preds = %52, %43
  br label %54

54:                                               ; preds = %53, %35
  store i32 0, ptr %11, align 4
  br label %55

55:                                               ; preds = %54, %42
  call void @llvm.lifetime.end.p0(i64 8, ptr %9) #11
  %56 = load i32, ptr %11, align 4
  switch i32 %56, label %63 [
    i32 0, label %57
  ]

57:                                               ; preds = %55
  br label %58

58:                                               ; preds = %57
  %59 = load i32, ptr %8, align 4, !tbaa !175
  %60 = icmp eq i32 %59, 2
  br i1 %60, label %19, label %61, !llvm.loop !197

61:                                               ; preds = %58
  %62 = load i32, ptr %8, align 4, !tbaa !175
  store i32 %62, ptr %3, align 4
  store i32 1, ptr %11, align 4
  br label %63

63:                                               ; preds = %61, %55
  call void @llvm.lifetime.end.p0(i64 4, ptr %8) #11
  call void @llvm.lifetime.end.p0(i64 8, ptr %7) #11
  call void @llvm.lifetime.end.p0(i64 8, ptr %6) #11
  %64 = load i32, ptr %3, align 4
  ret i32 %64
}