; Function Attrs: nounwind uwtable
define dso_local range(i32 0, 3) i32 @PyThread_acquire_lock_timed_with_retries(ptr noundef %0, i64 noundef %1) local_unnamed_addr #0 {
  %3 = tail call align 8 ptr @llvm.threadlocal.address.p0(ptr align 8 @_Py_tss_tstate)
  %4 = load ptr, ptr %3, align 8, !tbaa !178
  %5 = icmp sgt i64 %1, 0
  br i1 %5, label %6, label %8

6:                                                ; preds = %2
  %7 = tail call i64 @_PyDeadline_Init(i64 noundef %1) #13
  br label %8

8:                                                ; preds = %6, %2
  %.025 = phi i64 [ %7, %6 ], [ 0, %2 ]
  br label %.outer

.outer:                                           ; preds = %24, %8
  %.019.ph = phi i64 [ %25, %24 ], [ %1, %8 ]
  %9 = icmp sgt i64 %.019.ph, 0
  br label %10

10:                                               ; preds = %.outer, %23
  %11 = tail call i64 @_PyTime_AsMicroseconds(i64 noundef %.019.ph, i32 noundef 1) #13
  %12 = tail call i32 @PyThread_acquire_lock_timed(ptr noundef %0, i64 noundef 0, i32 noundef 0)
  %13 = icmp eq i32 %12, 0
  %14 = icmp ne i64 %11, 0
  %or.cond = select i1 %13, i1 %14, i1 false
  br i1 %or.cond, label %15, label %18

15:                                               ; preds = %10
  %16 = tail call ptr @PyEval_SaveThread() #13
  %17 = tail call i32 @PyThread_acquire_lock_timed(ptr noundef %0, i64 noundef %11, i32 noundef 1)
  tail call void @PyEval_RestoreThread(ptr noundef %16) #13
  br label %18

18:                                               ; preds = %15, %10
  %.022 = phi i32 [ %17, %15 ], [ %12, %10 ]
  %19 = icmp eq i32 %.022, 2
  br i1 %19, label %20, label %.thread36

20:                                               ; preds = %18
  %21 = tail call i32 @_PyEval_MakePendingCalls(ptr noundef %4) #13
  %22 = icmp slt i32 %21, 0
  br i1 %22, label %.thread36, label %23

23:                                               ; preds = %20
  br i1 %9, label %24, label %10, !llvm.loop !189

24:                                               ; preds = %23
  %25 = tail call i64 @_PyDeadline_Get(i64 noundef %.025) #13
  %26 = icmp slt i64 %25, 0
  br i1 %26, label %.thread36, label %.outer, !llvm.loop !189

.thread36:                                        ; preds = %24, %18, %20
  %.2 = phi i32 [ %.022, %18 ], [ 2, %20 ], [ 0, %24 ]
  ret i32 %.2
}